; ModuleID = '64/3494.c'
source_filename = "64/3494.c"
target datalayout = "e-m:e-p270:32:32-p271:32:32-p272:64:64-i64:64-f80:128-n8:16:32:64-S128"
target triple = "x86_64-pc-linux-gnu"

@.str = private unnamed_addr constant [3 x i8] c"%d\00", align 1
@.str.1 = private unnamed_addr constant [7 x i8] c"%d%d%d\00", align 1
@.str.2 = private unnamed_addr constant [29 x i8] c"(%d,%d,%d)-(%d,%d,%d)=%.2lf\0A\00", align 1

; Function Attrs: noinline nounwind uwtable
define dso_local i32 @main() #0 {
  %1 = alloca i32, align 4
  %2 = alloca i32, align 4
  %3 = alloca i32, align 4
  %4 = alloca i32, align 4
  %5 = alloca i32, align 4
  %6 = alloca i32, align 4
  %7 = alloca i32, align 4
  %8 = alloca i32, align 4
  %9 = alloca i32, align 4
  %10 = alloca [1000 x i32], align 16
  %11 = alloca [1000 x i32], align 16
  %12 = alloca [1000 x i32], align 16
  %13 = alloca [1000 x i32], align 16
  %14 = alloca [1000 x i32], align 16
  %15 = alloca [1000 x double], align 16
  %16 = alloca double, align 8
  store i32 0, i32* %1, align 4
  store i32 0, i32* %2, align 4
  %17 = call i32 (i8*, ...) @__isoc99_scanf(i8* getelementptr inbounds ([3 x i8], [3 x i8]* @.str, i64 0, i64 0), i32* %6)
  store i32 0, i32* %3, align 4
  br label %18

18:                                               ; preds = %33, %0
  %19 = load i32, i32* %3, align 4
  %20 = load i32, i32* %6, align 4
  %21 = icmp slt i32 %19, %20
  br i1 %21, label %22, label %36

22:                                               ; preds = %18
  %23 = load i32, i32* %3, align 4
  %24 = sext i32 %23 to i64
  %25 = getelementptr inbounds [1000 x i32], [1000 x i32]* %10, i64 0, i64 %24
  %26 = load i32, i32* %3, align 4
  %27 = sext i32 %26 to i64
  %28 = getelementptr inbounds [1000 x i32], [1000 x i32]* %11, i64 0, i64 %27
  %29 = load i32, i32* %3, align 4
  %30 = sext i32 %29 to i64
  %31 = getelementptr inbounds [1000 x i32], [1000 x i32]* %12, i64 0, i64 %30
  %32 = call i32 (i8*, ...) @__isoc99_scanf(i8* getelementptr inbounds ([7 x i8], [7 x i8]* @.str.1, i64 0, i64 0), i32* %25, i32* %28, i32* %31)
  br label %33

33:                                               ; preds = %22
  %34 = load i32, i32* %3, align 4
  %35 = add nsw i32 %34, 1
  store i32 %35, i32* %3, align 4
  br label %18

36:                                               ; preds = %18
  store i32 0, i32* %7, align 4
  br label %37

37:                                               ; preds = %104, %36
  %38 = load i32, i32* %7, align 4
  %39 = load i32, i32* %6, align 4
  %40 = sub nsw i32 %39, 1
  %41 = icmp slt i32 %38, %40
  br i1 %41, label %42, label %107

42:                                               ; preds = %37
  %43 = load i32, i32* %7, align 4
  store i32 %43, i32* %3, align 4
  %44 = load i32, i32* %7, align 4
  %45 = add nsw i32 %44, 1
  store i32 %45, i32* %5, align 4
  br label %46

46:                                               ; preds = %100, %42
  %47 = load i32, i32* %5, align 4
  %48 = load i32, i32* %6, align 4
  %49 = icmp slt i32 %47, %48
  br i1 %49, label %50, label %103

50:                                               ; preds = %46
  %51 = load i32, i32* %3, align 4
  %52 = sext i32 %51 to i64
  %53 = getelementptr inbounds [1000 x i32], [1000 x i32]* %10, i64 0, i64 %52
  %54 = load i32, i32* %53, align 4
  %55 = load i32, i32* %5, align 4
  %56 = sext i32 %55 to i64
  %57 = getelementptr inbounds [1000 x i32], [1000 x i32]* %10, i64 0, i64 %56
  %58 = load i32, i32* %57, align 4
  %59 = sub nsw i32 %54, %58
  %60 = sitofp i32 %59 to double
  %61 = call double @pow(double %60, double 2.000000e+00) #3
  %62 = load i32, i32* %3, align 4
  %63 = sext i32 %62 to i64
  %64 = getelementptr inbounds [1000 x i32], [1000 x i32]* %11, i64 0, i64 %63
  %65 = load i32, i32* %64, align 4
  %66 = load i32, i32* %5, align 4
  %67 = sext i32 %66 to i64
  %68 = getelementptr inbounds [1000 x i32], [1000 x i32]* %11, i64 0, i64 %67
  %69 = load i32, i32* %68, align 4
  %70 = sub nsw i32 %65, %69
  %71 = sitofp i32 %70 to double
  %72 = call double @pow(double %71, double 2.000000e+00) #3
  %73 = fadd double %61, %72
  %74 = load i32, i32* %3, align 4
  %75 = sext i32 %74 to i64
  %76 = getelementptr inbounds [1000 x i32], [1000 x i32]* %12, i64 0, i64 %75
  %77 = load i32, i32* %76, align 4
  %78 = load i32, i32* %5, align 4
  %79 = sext i32 %78 to i64
  %80 = getelementptr inbounds [1000 x i32], [1000 x i32]* %12, i64 0, i64 %79
  %81 = load i32, i32* %80, align 4
  %82 = sub nsw i32 %77, %81
  %83 = sitofp i32 %82 to double
  %84 = call double @pow(double %83, double 2.000000e+00) #3
  %85 = fadd double %73, %84
  %86 = call double @sqrt(double %85) #3
  %87 = load i32, i32* %2, align 4
  %88 = sext i32 %87 to i64
  %89 = getelementptr inbounds [1000 x double], [1000 x double]* %15, i64 0, i64 %88
  store double %86, double* %89, align 8
  %90 = load i32, i32* %3, align 4
  %91 = load i32, i32* %2, align 4
  %92 = sext i32 %91 to i64
  %93 = getelementptr inbounds [1000 x i32], [1000 x i32]* %13, i64 0, i64 %92
  store i32 %90, i32* %93, align 4
  %94 = load i32, i32* %5, align 4
  %95 = load i32, i32* %2, align 4
  %96 = sext i32 %95 to i64
  %97 = getelementptr inbounds [1000 x i32], [1000 x i32]* %14, i64 0, i64 %96
  store i32 %94, i32* %97, align 4
  %98 = load i32, i32* %2, align 4
  %99 = add nsw i32 %98, 1
  store i32 %99, i32* %2, align 4
  br label %100

100:                                              ; preds = %50
  %101 = load i32, i32* %5, align 4
  %102 = add nsw i32 %101, 1
  store i32 %102, i32* %5, align 4
  br label %46

103:                                              ; preds = %46
  br label %104

104:                                              ; preds = %103
  %105 = load i32, i32* %7, align 4
  %106 = add nsw i32 %105, 1
  store i32 %106, i32* %7, align 4
  br label %37

107:                                              ; preds = %37
  store i32 1, i32* %4, align 4
  br label %108

108:                                              ; preds = %187, %107
  %109 = load i32, i32* %4, align 4
  %110 = load i32, i32* %2, align 4
  %111 = icmp sle i32 %109, %110
  br i1 %111, label %112, label %190

112:                                              ; preds = %108
  store i32 0, i32* %3, align 4
  br label %113

113:                                              ; preds = %183, %112
  %114 = load i32, i32* %3, align 4
  %115 = load i32, i32* %2, align 4
  %116 = load i32, i32* %4, align 4
  %117 = sub nsw i32 %115, %116
  %118 = icmp slt i32 %114, %117
  br i1 %118, label %119, label %186

119:                                              ; preds = %113
  %120 = load i32, i32* %3, align 4
  %121 = sext i32 %120 to i64
  %122 = getelementptr inbounds [1000 x double], [1000 x double]* %15, i64 0, i64 %121
  %123 = load double, double* %122, align 8
  %124 = load i32, i32* %3, align 4
  %125 = add nsw i32 %124, 1
  %126 = sext i32 %125 to i64
  %127 = getelementptr inbounds [1000 x double], [1000 x double]* %15, i64 0, i64 %126
  %128 = load double, double* %127, align 8
  %129 = fcmp olt double %123, %128
  br i1 %129, label %130, label %182

130:                                              ; preds = %119
  %131 = load i32, i32* %3, align 4
  %132 = sext i32 %131 to i64
  %133 = getelementptr inbounds [1000 x double], [1000 x double]* %15, i64 0, i64 %132
  %134 = load double, double* %133, align 8
  store double %134, double* %16, align 8
  %135 = load i32, i32* %3, align 4
  %136 = add nsw i32 %135, 1
  %137 = sext i32 %136 to i64
  %138 = getelementptr inbounds [1000 x double], [1000 x double]* %15, i64 0, i64 %137
  %139 = load double, double* %138, align 8
  %140 = load i32, i32* %3, align 4
  %141 = sext i32 %140 to i64
  %142 = getelementptr inbounds [1000 x double], [1000 x double]* %15, i64 0, i64 %141
  store double %139, double* %142, align 8
  %143 = load double, double* %16, align 8
  %144 = load i32, i32* %3, align 4
  %145 = add nsw i32 %144, 1
  %146 = sext i32 %145 to i64
  %147 = getelementptr inbounds [1000 x double], [1000 x double]* %15, i64 0, i64 %146
  store double %143, double* %147, align 8
  %148 = load i32, i32* %3, align 4
  %149 = sext i32 %148 to i64
  %150 = getelementptr inbounds [1000 x i32], [1000 x i32]* %13, i64 0, i64 %149
  %151 = load i32, i32* %150, align 4
  store i32 %151, i32* %8, align 4
  %152 = load i32, i32* %3, align 4
  %153 = add nsw i32 %152, 1
  %154 = sext i32 %153 to i64
  %155 = getelementptr inbounds [1000 x i32], [1000 x i32]* %13, i64 0, i64 %154
  %156 = load i32, i32* %155, align 4
  %157 = load i32, i32* %3, align 4
  %158 = sext i32 %157 to i64
  %159 = getelementptr inbounds [1000 x i32], [1000 x i32]* %13, i64 0, i64 %158
  store i32 %156, i32* %159, align 4
  %160 = load i32, i32* %8, align 4
  %161 = load i32, i32* %3, align 4
  %162 = add nsw i32 %161, 1
  %163 = sext i32 %162 to i64
  %164 = getelementptr inbounds [1000 x i32], [1000 x i32]* %13, i64 0, i64 %163
  store i32 %160, i32* %164, align 4
  %165 = load i32, i32* %3, align 4
  %166 = sext i32 %165 to i64
  %167 = getelementptr inbounds [1000 x i32], [1000 x i32]* %14, i64 0, i64 %166
  %168 = load i32, i32* %167, align 4
  store i32 %168, i32* %9, align 4
  %169 = load i32, i32* %3, align 4
  %170 = add nsw i32 %169, 1
  %171 = sext i32 %170 to i64
  %172 = getelementptr inbounds [1000 x i32], [1000 x i32]* %14, i64 0, i64 %171
  %173 = load i32, i32* %172, align 4
  %174 = load i32, i32* %3, align 4
  %175 = sext i32 %174 to i64
  %176 = getelementptr inbounds [1000 x i32], [1000 x i32]* %14, i64 0, i64 %175
  store i32 %173, i32* %176, align 4
  %177 = load i32, i32* %9, align 4
  %178 = load i32, i32* %3, align 4
  %179 = add nsw i32 %178, 1
  %180 = sext i32 %179 to i64
  %181 = getelementptr inbounds [1000 x i32], [1000 x i32]* %14, i64 0, i64 %180
  store i32 %177, i32* %181, align 4
  br label %182

182:                                              ; preds = %130, %119
  br label %183

183:                                              ; preds = %182
  %184 = load i32, i32* %3, align 4
  %185 = add nsw i32 %184, 1
  store i32 %185, i32* %3, align 4
  br label %113

186:                                              ; preds = %113
  br label %187

187:                                              ; preds = %186
  %188 = load i32, i32* %4, align 4
  %189 = add nsw i32 %188, 1
  store i32 %189, i32* %4, align 4
  br label %108

190:                                              ; preds = %108
  store i32 0, i32* %3, align 4
  br label %191

191:                                              ; preds = %243, %190
  %192 = load i32, i32* %3, align 4
  %193 = load i32, i32* %2, align 4
  %194 = icmp slt i32 %192, %193
  br i1 %194, label %195, label %246

195:                                              ; preds = %191
  %196 = load i32, i32* %3, align 4
  %197 = sext i32 %196 to i64
  %198 = getelementptr inbounds [1000 x i32], [1000 x i32]* %13, i64 0, i64 %197
  %199 = load i32, i32* %198, align 4
  %200 = sext i32 %199 to i64
  %201 = getelementptr inbounds [1000 x i32], [1000 x i32]* %10, i64 0, i64 %200
  %202 = load i32, i32* %201, align 4
  %203 = load i32, i32* %3, align 4
  %204 = sext i32 %203 to i64
  %205 = getelementptr inbounds [1000 x i32], [1000 x i32]* %13, i64 0, i64 %204
  %206 = load i32, i32* %205, align 4
  %207 = sext i32 %206 to i64
  %208 = getelementptr inbounds [1000 x i32], [1000 x i32]* %11, i64 0, i64 %207
  %209 = load i32, i32* %208, align 4
  %210 = load i32, i32* %3, align 4
  %211 = sext i32 %210 to i64
  %212 = getelementptr inbounds [1000 x i32], [1000 x i32]* %13, i64 0, i64 %211
  %213 = load i32, i32* %212, align 4
  %214 = sext i32 %213 to i64
  %215 = getelementptr inbounds [1000 x i32], [1000 x i32]* %12, i64 0, i64 %214
  %216 = load i32, i32* %215, align 4
  %217 = load i32, i32* %3, align 4
  %218 = sext i32 %217 to i64
  %219 = getelementptr inbounds [1000 x i32], [1000 x i32]* %14, i64 0, i64 %218
  %220 = load i32, i32* %219, align 4
  %221 = sext i32 %220 to i64
  %222 = getelementptr inbounds [1000 x i32], [1000 x i32]* %10, i64 0, i64 %221
  %223 = load i32, i32* %222, align 4
  %224 = load i32, i32* %3, align 4
  %225 = sext i32 %224 to i64
  %226 = getelementptr inbounds [1000 x i32], [1000 x i32]* %14, i64 0, i64 %225
  %227 = load i32, i32* %226, align 4
  %228 = sext i32 %227 to i64
  %229 = getelementptr inbounds [1000 x i32], [1000 x i32]* %11, i64 0, i64 %228
  %230 = load i32, i32* %229, align 4
  %231 = load i32, i32* %3, align 4
  %232 = sext i32 %231 to i64
  %233 = getelementptr inbounds [1000 x i32], [1000 x i32]* %14, i64 0, i64 %232
  %234 = load i32, i32* %233, align 4
  %235 = sext i32 %234 to i64
  %236 = getelementptr inbounds [1000 x i32], [1000 x i32]* %12, i64 0, i64 %235
  %237 = load i32, i32* %236, align 4
  %238 = load i32, i32* %3, align 4
  %239 = sext i32 %238 to i64
  %240 = getelementptr inbounds [1000 x double], [1000 x double]* %15, i64 0, i64 %239
  %241 = load double, double* %240, align 8
  %242 = call i32 (i8*, ...) @printf(i8* getelementptr inbounds ([29 x i8], [29 x i8]* @.str.2, i64 0, i64 0), i32 %202, i32 %209, i32 %216, i32 %223, i32 %230, i32 %237, double %241)
  br label %243

243:                                              ; preds = %195
  %244 = load i32, i32* %3, align 4
  %245 = add nsw i32 %244, 1
  store i32 %245, i32* %3, align 4
  br label %191

246:                                              ; preds = %191
  ret i32 0
}

declare dso_local i32 @__isoc99_scanf(i8*, ...) #1

; Function Attrs: nounwind
declare dso_local double @sqrt(double) #2

; Function Attrs: nounwind
declare dso_local double @pow(double, double) #2

declare dso_local i32 @printf(i8*, ...) #1


!llvm.module.flags = !{!0}
!llvm.ident = !{!1}

!0 = !{i32 1, !"wchar_size", i32 4}
!1 = !{!"clang version 10.0.0-4ubuntu1 "}
